; Function Attrs: mustprogress uwtable
define hidden void @_ZN2bv6solver8get_bitsEiR10ref_vectorI4expr11ast_managerE(ptr noundef nonnull align 8 dereferenceable(640) %0, i32 noundef %1, ptr noundef nonnull align 8 dereferenceable(16) %2) local_unnamed_addr #3 align 2 personality ptr @__gxx_personality_v0 {
  %4 = alloca %class.obj_ref, align 8
  %5 = getelementptr inbounds nuw i8, ptr %0, i64 456
  %6 = load ptr, ptr %5, align 8, !tbaa !53
  %7 = zext i32 %1 to i64
  %8 = getelementptr inbounds nuw %class.svector.5, ptr %6, i64 %7
  %9 = load ptr, ptr %8, align 8, !tbaa !50
  %10 = icmp eq ptr %9, null
  br i1 %10, label %._crit_edge, label %_ZN6vectorIN3sat7literalELb0EjE3endEv.exit

_ZN6vectorIN3sat7literalELb0EjE3endEv.exit:       ; preds = %3
  %11 = getelementptr inbounds i8, ptr %9, i64 -4
  %12 = load i32, ptr %11, align 4, !tbaa !47
  %13 = zext i32 %12 to i64
  %14 = getelementptr inbounds nuw %"class.sat::literal", ptr %9, i64 %13
  %.not11 = icmp eq i32 %12, 0
  br i1 %.not11, label %._crit_edge, label %.lr.ph

.lr.ph:                                           ; preds = %_ZN6vectorIN3sat7literalELb0EjE3endEv.exit
  %15 = getelementptr inbounds nuw i8, ptr %2, i64 8
  br label %16

._crit_edge:                                      ; preds = %_ZN7obj_refI4expr11ast_managerED2Ev.exit, %3, %_ZN6vectorIN3sat7literalELb0EjE3endEv.exit
  ret void

16:                                               ; preds = %.lr.ph, %_ZN7obj_refI4expr11ast_managerED2Ev.exit
  %.012 = phi ptr [ %9, %.lr.ph ], [ %33, %_ZN7obj_refI4expr11ast_managerED2Ev.exit ]
  %.sroa.01.0.copyload = load i32, ptr %.012, align 4, !tbaa !47
  call void @llvm.lifetime.start.p0(i64 16, ptr nonnull %4) #25
  call void @_ZNK3euf13th_euf_solver12literal2exprEN3sat7literalE(ptr dead_on_unwind nonnull writable sret(%class.obj_ref) align 8 %4, ptr noundef nonnull align 8 dereferenceable(108) %0, i32 %.sroa.01.0.copyload)
  %17 = load ptr, ptr %4, align 8, !tbaa !125
  %18 = load ptr, ptr %15, align 8, !tbaa !139
  %19 = icmp eq ptr %18, null
  br i1 %19, label %26, label %20

20:                                               ; preds = %16
  %21 = getelementptr inbounds i8, ptr %18, i64 -4
  %22 = load i32, ptr %21, align 4, !tbaa !47
  %23 = getelementptr inbounds i8, ptr %18, i64 -8
  %24 = load i32, ptr %23, align 4, !tbaa !47
  %25 = icmp eq i32 %22, %24
  br i1 %25, label %26, label %_ZN7obj_refI4expr11ast_managerED2Ev.exit

26:                                               ; preds = %20, %16
  invoke void @_ZN6vectorIP4exprLb0EjE13expand_vectorEv(ptr noundef nonnull align 8 dereferenceable(8) %15)
          to label %.noexc unwind label %34

.noexc:                                           ; preds = %26
  %.pre.i.i = load ptr, ptr %15, align 8, !tbaa !139
  %.phi.trans.insert.i.i = getelementptr inbounds i8, ptr %.pre.i.i, i64 -4
  %.pre2.i.i = load i32, ptr %.phi.trans.insert.i.i, align 4, !tbaa !47
  br label %_ZN7obj_refI4expr11ast_managerED2Ev.exit

_ZN7obj_refI4expr11ast_managerED2Ev.exit:         ; preds = %20, %.noexc
  %27 = phi i32 [ %.pre2.i.i, %.noexc ], [ %22, %20 ]
  %28 = phi ptr [ %.pre.i.i, %.noexc ], [ %18, %20 ]
  %29 = getelementptr inbounds i8, ptr %28, i64 -4
  %30 = zext i32 %27 to i64
  %31 = getelementptr inbounds nuw ptr, ptr %28, i64 %30
  store ptr %17, ptr %31, align 8, !tbaa !104
  %32 = add i32 %27, 1
  store i32 %32, ptr %29, align 4, !tbaa !47
  call void @llvm.lifetime.end.p0(i64 16, ptr nonnull %4) #25
  %33 = getelementptr inbounds nuw i8, ptr %.012, i64 4
  %.not = icmp eq ptr %33, %14
  br i1 %.not, label %._crit_edge, label %16

34:                                               ; preds = %26
  %35 = landingpad { ptr, i32 }
          cleanup
  call void @_ZN7obj_refI4expr11ast_managerED2Ev(ptr noundef nonnull align 8 dereferenceable(16) %4) #25
  call void @llvm.lifetime.end.p0(i64 16, ptr nonnull %4) #25
  resume { ptr, i32 } %35
}